target datalayout = "e-m:e-p270:32:32-p271:32:32-p272:64:64-i64:64-i128:128-f80:128-n8:16:32:64-S128"
target triple = "x86_64-pc-linux-gnu"

%struct.ma_allocation_callbacks = type { ptr, ptr, ptr, ptr }
%struct.ma_dr_wav = type { ptr, ptr, ptr, ptr, %struct.ma_allocation_callbacks, i32, %struct.ma_dr_wav_fmt, i32, i16, i16, i16, i64, i64, i64, i64, i64, i64, i32, ptr, i32, %struct.ma_dr_wav__memory_stream, %struct.ma_dr_wav__memory_stream_write, %struct.anon.52, %struct.anon.53, %struct.anon.54 }
%struct.ma_dr_wav_fmt = type { i16, i16, i32, i32, i16, i16, i16, i16, i32, [16 x i8] }
%struct.ma_dr_wav__memory_stream = type { ptr, i64, i64 }
%struct.ma_dr_wav__memory_stream_write = type { ptr, ptr, i64, i64, i64 }
%struct.anon.52 = type { i32, [2 x i16], [2 x i32], [4 x i32], i32, [2 x [2 x i32]] }
%struct.anon.53 = type { i32, [2 x i32], [2 x i32], [16 x i32], i32 }
%struct.anon.54 = type { i8, i8 }

; Function Attrs: nounwind uwtable
define internal void @ma_dr_wav_copy_allocation_callbacks_or_defaults(ptr dead_on_unwind noalias writable sret(%struct.ma_allocation_callbacks) align 8 %0, ptr noundef %1) #0 {
  %3 = alloca ptr, align 8
  store ptr %1, ptr %3, align 8, !tbaa !25
  %4 = load ptr, ptr %3, align 8, !tbaa !25
  %5 = icmp ne ptr %4, null
  br i1 %5, label %6, label %8

6:                                                ; preds = %2
  %7 = load ptr, ptr %3, align 8, !tbaa !25
  call void @llvm.memcpy.p0.p0.i64(ptr align 8 %0, ptr align 8 %7, i64 32, i1 false), !tbaa.struct !37
  br label %13

8:                                                ; preds = %2
  %9 = getelementptr inbounds nuw %struct.ma_allocation_callbacks, ptr %0, i32 0, i32 0
  store ptr null, ptr %9, align 8, !tbaa !28
  %10 = getelementptr inbounds nuw %struct.ma_allocation_callbacks, ptr %0, i32 0, i32 1
  store ptr @ma_dr_wav__malloc_default, ptr %10, align 8, !tbaa !26
  %11 = getelementptr inbounds nuw %struct.ma_allocation_callbacks, ptr %0, i32 0, i32 2
  store ptr @ma_dr_wav__realloc_default, ptr %11, align 8, !tbaa !38
  %12 = getelementptr inbounds nuw %struct.ma_allocation_callbacks, ptr %0, i32 0, i32 3
  store ptr @ma_dr_wav__free_default, ptr %12, align 8, !tbaa !33
  br label %13

13:                                               ; preds = %8, %6
  ret void
}

; Function Attrs: nounwind uwtable
define internal i32 @ma_dr_wav_preinit(ptr noundef %0, ptr noundef %1, ptr noundef %2, ptr noundef %3, ptr noundef %4) #0 {
  %6 = alloca i32, align 4
  %7 = alloca ptr, align 8
  %8 = alloca ptr, align 8
  %9 = alloca ptr, align 8
  %10 = alloca ptr, align 8
  %11 = alloca ptr, align 8
  %12 = alloca %struct.ma_allocation_callbacks, align 8
  store ptr %0, ptr %7, align 8, !tbaa !25
  store ptr %1, ptr %8, align 8, !tbaa !25
  store ptr %2, ptr %9, align 8, !tbaa !25
  store ptr %3, ptr %10, align 8, !tbaa !25
  store ptr %4, ptr %11, align 8, !tbaa !25
  %13 = load ptr, ptr %7, align 8, !tbaa !25
  %14 = icmp eq ptr %13, null
  br i1 %14, label %21, label %15

15:                                               ; preds = %5
  %16 = load ptr, ptr %8, align 8, !tbaa !25
  %17 = icmp eq ptr %16, null
  br i1 %17, label %21, label %18

18:                                               ; preds = %15
  %19 = load ptr, ptr %9, align 8, !tbaa !25
  %20 = icmp eq ptr %19, null
  br i1 %20, label %21, label %22

21:                                               ; preds = %18, %15, %5
  store i32 0, ptr %6, align 4
  br label %55

22:                                               ; preds = %18
  %23 = load ptr, ptr %7, align 8, !tbaa !25
  call void @llvm.memset.p0.i64(ptr align 8 %23, i8 0, i64 400, i1 false)
  %24 = load ptr, ptr %8, align 8, !tbaa !25
  %25 = load ptr, ptr %7, align 8, !tbaa !25
  %26 = getelementptr inbounds nuw %struct.ma_dr_wav, ptr %25, i32 0, i32 0
  store ptr %24, ptr %26, align 8, !tbaa !962
  %27 = load ptr, ptr %9, align 8, !tbaa !25
  %28 = load ptr, ptr %7, align 8, !tbaa !25
  %29 = getelementptr inbounds nuw %struct.ma_dr_wav, ptr %28, i32 0, i32 2
  store ptr %27, ptr %29, align 8, !tbaa !955
  %30 = load ptr, ptr %10, align 8, !tbaa !25
  %31 = load ptr, ptr %7, align 8, !tbaa !25
  %32 = getelementptr inbounds nuw %struct.ma_dr_wav, ptr %31, i32 0, i32 3
  store ptr %30, ptr %32, align 8, !tbaa !957
  %33 = load ptr, ptr %7, align 8, !tbaa !25
  %34 = getelementptr inbounds nuw %struct.ma_dr_wav, ptr %33, i32 0, i32 4
  call void @llvm.lifetime.start.p0(i64 32, ptr %12) #16
  %35 = load ptr, ptr %11, align 8, !tbaa !25
  call void @ma_dr_wav_copy_allocation_callbacks_or_defaults(ptr dead_on_unwind writable sret(%struct.ma_allocation_callbacks) align 8 %12, ptr noundef %35)
  call void @llvm.memcpy.p0.p0.i64(ptr align 8 %34, ptr align 8 %12, i64 32, i1 false), !tbaa.struct !37
  call void @llvm.lifetime.end.p0(i64 32, ptr %12) #16
  %36 = load ptr, ptr %7, align 8, !tbaa !25
  %37 = getelementptr inbounds nuw %struct.ma_dr_wav, ptr %36, i32 0, i32 4
  %38 = getelementptr inbounds nuw %struct.ma_allocation_callbacks, ptr %37, i32 0, i32 3
  %39 = load ptr, ptr %38, align 8, !tbaa !1506
  %40 = icmp eq ptr %39, null
  br i1 %40, label %53, label %41

41:                                               ; preds = %22
  %42 = load ptr, ptr %7, align 8, !tbaa !25
  %43 = getelementptr inbounds nuw %struct.ma_dr_wav, ptr %42, i32 0, i32 4
  %44 = getelementptr inbounds nuw %struct.ma_allocation_callbacks, ptr %43, i32 0, i32 1
  %45 = load ptr, ptr %44, align 8, !tbaa !1507
  %46 = icmp eq ptr %45, null
  br i1 %46, label %47, label %54

47:                                               ; preds = %41
  %48 = load ptr, ptr %7, align 8, !tbaa !25
  %49 = getelementptr inbounds nuw %struct.ma_dr_wav, ptr %48, i32 0, i32 4
  %50 = getelementptr inbounds nuw %struct.ma_allocation_callbacks, ptr %49, i32 0, i32 2
  %51 = load ptr, ptr %50, align 8, !tbaa !1508
  %52 = icmp eq ptr %51, null
  br i1 %52, label %53, label %54

53:                                               ; preds = %47, %22
  store i32 0, ptr %6, align 4
  br label %55

54:                                               ; preds = %47, %41
  store i32 1, ptr %6, align 4
  br label %55

55:                                               ; preds = %54, %53, %21
  %56 = load i32, ptr %6, align 4
  ret i32 %56
}

; Function Attrs: nounwind uwtable
define i32 @ma_dr_wav_init_memory_ex(ptr noundef %0, ptr noundef %1, i64 noundef %2, ptr noundef %3, ptr noundef %4, i32 noundef %5, ptr noundef %6) #0 {
  %8 = alloca i32, align 4
  %9 = alloca ptr, align 8
  %10 = alloca ptr, align 8
  %11 = alloca i64, align 8
  %12 = alloca ptr, align 8
  %13 = alloca ptr, align 8
  %14 = alloca i32, align 4
  %15 = alloca ptr, align 8
  store ptr %0, ptr %9, align 8, !tbaa !25
  store ptr %1, ptr %10, align 8, !tbaa !25
  store i64 %2, ptr %11, align 8, !tbaa !12
  store ptr %3, ptr %12, align 8, !tbaa !25
  store ptr %4, ptr %13, align 8, !tbaa !25
  store i32 %5, ptr %14, align 4, !tbaa !8
  store ptr %6, ptr %15, align 8, !tbaa !25
  %16 = load ptr, ptr %10, align 8, !tbaa !25
  %17 = icmp eq ptr %16, null
  br i1 %17, label %21, label %18

18:                                               ; preds = %7
  %19 = load i64, ptr %11, align 8, !tbaa !12
  %20 = icmp eq i64 %19, 0
  br i1 %20, label %21, label %22

21:                                               ; preds = %18, %7
  store i32 0, ptr %8, align 4
  br label %46

22:                                               ; preds = %18
  %23 = load ptr, ptr %9, align 8, !tbaa !25
  %24 = load ptr, ptr %9, align 8, !tbaa !25
  %25 = load ptr, ptr %15, align 8, !tbaa !25
  %26 = call i32 @ma_dr_wav_preinit(ptr noundef %23, ptr noundef @ma_dr_wav__on_read_memory, ptr noundef @ma_dr_wav__on_seek_memory, ptr noundef %24, ptr noundef %25)
  %27 = icmp ne i32 %26, 0
  br i1 %27, label %29, label %28

28:                                               ; preds = %22
  store i32 0, ptr %8, align 4
  br label %46

29:                                               ; preds = %22
  %30 = load ptr, ptr %10, align 8, !tbaa !25
  %31 = load ptr, ptr %9, align 8, !tbaa !25
  %32 = getelementptr inbounds nuw %struct.ma_dr_wav, ptr %31, i32 0, i32 20
  %33 = getelementptr inbounds nuw %struct.ma_dr_wav__memory_stream, ptr %32, i32 0, i32 0
  store ptr %30, ptr %33, align 8, !tbaa !1537
  %34 = load i64, ptr %11, align 8, !tbaa !12
  %35 = load ptr, ptr %9, align 8, !tbaa !25
  %36 = getelementptr inbounds nuw %struct.ma_dr_wav, ptr %35, i32 0, i32 20
  %37 = getelementptr inbounds nuw %struct.ma_dr_wav__memory_stream, ptr %36, i32 0, i32 1
  store i64 %34, ptr %37, align 8, !tbaa !1538
  %38 = load ptr, ptr %9, align 8, !tbaa !25
  %39 = getelementptr inbounds nuw %struct.ma_dr_wav, ptr %38, i32 0, i32 20
  %40 = getelementptr inbounds nuw %struct.ma_dr_wav__memory_stream, ptr %39, i32 0, i32 2
  store i64 0, ptr %40, align 8, !tbaa !1539
  %41 = load ptr, ptr %9, align 8, !tbaa !25
  %42 = load ptr, ptr %12, align 8, !tbaa !25
  %43 = load ptr, ptr %13, align 8, !tbaa !25
  %44 = load i32, ptr %14, align 4, !tbaa !8
  %45 = call i32 @ma_dr_wav_init__internal(ptr noundef %41, ptr noundef %42, ptr noundef %43, i32 noundef %44)
  store i32 %45, ptr %8, align 4
  br label %46

46:                                               ; preds = %29, %28, %21
  %47 = load i32, ptr %8, align 4
  ret i32 %47
}

; Function Attrs: nounwind uwtable
define i32 @ma_dr_wav_init_memory(ptr noundef %0, ptr noundef %1, i64 noundef %2, ptr noundef %3) #0 {
  %5 = alloca ptr, align 8
  %6 = alloca ptr, align 8
  %7 = alloca i64, align 8
  %8 = alloca ptr, align 8
  store ptr %0, ptr %5, align 8, !tbaa !25
  store ptr %1, ptr %6, align 8, !tbaa !25
  store i64 %2, ptr %7, align 8, !tbaa !12
  store ptr %3, ptr %8, align 8, !tbaa !25
  %9 = load ptr, ptr %5, align 8, !tbaa !25
  %10 = load ptr, ptr %6, align 8, !tbaa !25
  %11 = load i64, ptr %7, align 8, !tbaa !12
  %12 = load ptr, ptr %8, align 8, !tbaa !25
  %13 = call i32 @ma_dr_wav_init_memory_ex(ptr noundef %9, ptr noundef %10, i64 noundef %11, ptr noundef null, ptr noundef null, i32 noundef 0, ptr noundef %12)
  ret i32 %13
}