; Function Attrs: nounwind uwtable
define range(i32 0, 2) i32 @ma_dr_wav_init_memory(ptr noundef %0, ptr noundef %1, i64 noundef %2, ptr noundef readonly captures(address_is_null) %3) local_unnamed_addr #7 {
  %5 = icmp eq ptr %1, null
  %6 = icmp eq i64 %2, 0
  %or.cond.i = or i1 %5, %6
  %7 = icmp eq ptr %0, null
  %or.cond19.i = or i1 %7, %or.cond.i
  br i1 %or.cond19.i, label %ma_dr_wav_init_memory_ex.exit, label %8

8:                                                ; preds = %4
  %9 = getelementptr inbounds nuw i8, ptr %0, i64 8
  tail call void @llvm.memset.p0.i64(ptr noundef nonnull align 8 dereferenceable(400) %9, i8 0, i64 392, i1 false)
  store ptr @ma_dr_wav__on_read_memory, ptr %0, align 8, !tbaa !1141
  %10 = getelementptr inbounds nuw i8, ptr %0, i64 16
  store ptr @ma_dr_wav__on_seek_memory, ptr %10, align 8, !tbaa !1142
  %11 = getelementptr inbounds nuw i8, ptr %0, i64 24
  store ptr %0, ptr %11, align 8, !tbaa !1143
  %.not.i.i.i = icmp eq ptr %3, null
  br i1 %.not.i.i.i, label %.thread.i.i, label %ma_dr_wav_copy_allocation_callbacks_or_defaults.exit.i.i

.thread.i.i:                                      ; preds = %8
  %.sroa.5.0..sroa_idx30.i.i = getelementptr inbounds nuw i8, ptr %0, i64 40
  store ptr @ma_dr_wav__malloc_default, ptr %.sroa.5.0..sroa_idx30.i.i, align 8, !tbaa !27
  %.sroa.6.0..sroa_idx31.i.i = getelementptr inbounds nuw i8, ptr %0, i64 48
  store ptr @ma_dr_wav__realloc_default, ptr %.sroa.6.0..sroa_idx31.i.i, align 8, !tbaa !27
  %.sroa.7.0..sroa_idx32.i.i = getelementptr inbounds nuw i8, ptr %0, i64 56
  store ptr @ma_dr_wav__free_default, ptr %.sroa.7.0..sroa_idx32.i.i, align 8, !tbaa !27
  br label %ma_dr_wav_preinit.exit.i

ma_dr_wav_copy_allocation_callbacks_or_defaults.exit.i.i: ; preds = %8
  %12 = getelementptr inbounds nuw i8, ptr %0, i64 32
  %.sroa.0.0.copyload21.i.i = load ptr, ptr %3, align 8, !tbaa !27
  %.sroa.5.0..sroa_idx22.i.i = getelementptr inbounds nuw i8, ptr %3, i64 8
  %.sroa.5.0.copyload23.i.i = load ptr, ptr %.sroa.5.0..sroa_idx22.i.i, align 8, !tbaa !27
  %.sroa.6.0..sroa_idx24.i.i = getelementptr inbounds nuw i8, ptr %3, i64 16
  %.sroa.6.0.copyload25.i.i = load ptr, ptr %.sroa.6.0..sroa_idx24.i.i, align 8, !tbaa !27
  %.sroa.7.0..sroa_idx26.i.i = getelementptr inbounds nuw i8, ptr %3, i64 24
  %.sroa.7.0.copyload27.i.i = load ptr, ptr %.sroa.7.0..sroa_idx26.i.i, align 8, !tbaa !27
  store ptr %.sroa.0.0.copyload21.i.i, ptr %12, align 8, !tbaa !27
  %.sroa.5.0..sroa_idx.i.i = getelementptr inbounds nuw i8, ptr %0, i64 40
  store ptr %.sroa.5.0.copyload23.i.i, ptr %.sroa.5.0..sroa_idx.i.i, align 8, !tbaa !27
  %.sroa.6.0..sroa_idx.i.i = getelementptr inbounds nuw i8, ptr %0, i64 48
  store ptr %.sroa.6.0.copyload25.i.i, ptr %.sroa.6.0..sroa_idx.i.i, align 8, !tbaa !27
  %.sroa.7.0..sroa_idx.i.i = getelementptr inbounds nuw i8, ptr %0, i64 56
  store ptr %.sroa.7.0.copyload27.i.i, ptr %.sroa.7.0..sroa_idx.i.i, align 8, !tbaa !27
  %13 = icmp eq ptr %.sroa.7.0.copyload27.i.i, null
  br i1 %13, label %ma_dr_wav_init_memory_ex.exit, label %14

14:                                               ; preds = %ma_dr_wav_copy_allocation_callbacks_or_defaults.exit.i.i
  %15 = icmp eq ptr %.sroa.5.0.copyload23.i.i, null
  %16 = icmp eq ptr %.sroa.6.0.copyload25.i.i, null
  %or.cond33.i.i = select i1 %15, i1 %16, i1 false
  br i1 %or.cond33.i.i, label %ma_dr_wav_init_memory_ex.exit, label %ma_dr_wav_preinit.exit.i

ma_dr_wav_preinit.exit.i:                         ; preds = %14, %.thread.i.i
  %17 = getelementptr inbounds nuw i8, ptr %0, i64 192
  store ptr %1, ptr %17, align 8, !tbaa !1146
  %18 = getelementptr inbounds nuw i8, ptr %0, i64 200
  store i64 %2, ptr %18, align 8, !tbaa !1147
  %19 = getelementptr inbounds nuw i8, ptr %0, i64 208
  store i64 0, ptr %19, align 8, !tbaa !1148
  %20 = tail call fastcc i32 @ma_dr_wav_init__internal(ptr noundef nonnull %0, ptr noundef null, ptr noundef null, i32 noundef 0)
  br label %ma_dr_wav_init_memory_ex.exit

ma_dr_wav_init_memory_ex.exit:                    ; preds = %4, %ma_dr_wav_copy_allocation_callbacks_or_defaults.exit.i.i, %14, %ma_dr_wav_preinit.exit.i
  %.0.i = phi i32 [ %20, %ma_dr_wav_preinit.exit.i ], [ 0, %4 ], [ 0, %ma_dr_wav_copy_allocation_callbacks_or_defaults.exit.i.i ], [ 0, %14 ]
  ret i32 %.0.i
}